target datalayout = "e-m:e-p270:32:32-p271:32:32-p272:64:64-i64:64-i128:128-f80:128-n8:16:32:64-S128"
target triple = "x86_64-pc-linux-gnu"

%struct.H5C_class_t = type { i32, ptr, i32, i32, ptr, ptr, ptr, ptr, ptr, ptr, ptr, ptr, ptr, ptr }
%struct.H5FA_hdr_t = type { %struct.H5C_cache_entry_t, %struct.H5FA_create_t, i64, %struct.H5FA_stat_t, i64, i64, i64, ptr, i64, i8, i64, i64, ptr, i8, ptr, ptr }
%struct.H5C_cache_entry_t = type { ptr, i64, i64, ptr, i8, ptr, i8, i8, i8, i8, i32, i8, i8, i8, i8, i8, i32, ptr, i32, i32, i32, i32, i32, i8, i8, ptr, ptr, ptr, ptr, ptr, ptr, i8, i32, i8, i64, ptr, i64, i64, i32, i8, i32, i32, i8, ptr, ptr, ptr }
%struct.H5FA_create_t = type { ptr, i8, i8, i64 }
%struct.H5FA_stat_t = type { i64, i64, i64 }

@H5FA_init_g = external global i8, align 1
@H5_libterm_g = external global i8, align 1
@.str = private unnamed_addr constant [101 x i8] c"generated/home/dtcxzyw/WorkSpace/Projects/compilers/llvm-opt-benchmark/bench/hdf5/hdf5/src/H5FAhdr.c\00", align 1
@H5E_FARRAY_g = external global i64, align 8
@H5AC_FARRAY_HDR = external constant [1 x %struct.H5C_class_t], align 16
@__func__.H5FA__hdr_unprotect = private unnamed_addr constant [20 x i8] c"H5FA__hdr_unprotect\00", align 1
@H5E_CANTUNPROTECT_g = external global i64, align 8
@.str.16 = private unnamed_addr constant [52 x i8] c"unable to unprotect fixed array hdr, address = %llu\00", align 1

; Function Attrs: nounwind uwtable
define i32 @H5FA__hdr_unprotect(ptr noundef %0, i32 noundef %1) #0 {
  %3 = alloca ptr, align 8
  %4 = alloca i32, align 4
  %5 = alloca i32, align 4
  %6 = alloca i8, align 1
  store ptr %0, ptr %3, align 8, !tbaa !8
  store i32 %1, ptr %4, align 4, !tbaa !34
  call void @llvm.lifetime.start.p0(i64 4, ptr %5) #5
  store i32 0, ptr %5, align 4, !tbaa !34
  call void @llvm.lifetime.start.p0(i64 1, ptr %6) #5
  store i8 0, ptr %6, align 1, !tbaa !10
  %7 = load i8, ptr @H5FA_init_g, align 1, !tbaa !10, !range !12, !noundef !13
  %8 = trunc i8 %7 to i1
  br i1 %8, label %13, label %9

9:                                                ; preds = %2
  %10 = load i8, ptr @H5_libterm_g, align 1, !tbaa !10, !range !12, !noundef !13
  %11 = trunc i8 %10 to i1
  %12 = xor i1 %11, true
  br label %13

13:                                               ; preds = %9, %2
  %14 = phi i1 [ true, %2 ], [ %12, %9 ]
  %15 = xor i1 %14, true
  %16 = xor i1 %15, true
  %17 = zext i1 %16 to i32
  %18 = sext i32 %17 to i64
  %19 = call i64 @llvm.expect.i64(i64 %18, i64 1)
  %20 = icmp ne i64 %19, 0
  br i1 %20, label %21, label %56

21:                                               ; preds = %13
  %22 = load ptr, ptr %3, align 8, !tbaa !8
  %23 = getelementptr inbounds nuw %struct.H5FA_hdr_t, ptr %22, i32 0, i32 7
  %24 = load ptr, ptr %23, align 8, !tbaa !30
  %25 = load ptr, ptr %3, align 8, !tbaa !8
  %26 = getelementptr inbounds nuw %struct.H5FA_hdr_t, ptr %25, i32 0, i32 5
  %27 = load i64, ptr %26, align 8, !tbaa !16
  %28 = load ptr, ptr %3, align 8, !tbaa !8
  %29 = load i32, ptr %4, align 4, !tbaa !34
  %30 = call i32 @H5AC_unprotect(ptr noundef %24, ptr noundef @H5AC_FARRAY_HDR, i64 noundef %27, ptr noundef %28, i32 noundef %29)
  %31 = icmp slt i32 %30, 0
  br i1 %31, label %32, label %54

32:                                               ; preds = %21
  br label %33

33:                                               ; preds = %32
  br label %34

34:                                               ; preds = %33
  br label %35

35:                                               ; preds = %34
  %36 = load i64, ptr @H5E_FARRAY_g, align 8, !tbaa !14
  %37 = load i64, ptr @H5E_CANTUNPROTECT_g, align 8, !tbaa !14
  %38 = load ptr, ptr %3, align 8, !tbaa !8
  %39 = getelementptr inbounds nuw %struct.H5FA_hdr_t, ptr %38, i32 0, i32 5
  %40 = load i64, ptr %39, align 8, !tbaa !16
  %41 = call i32 (ptr, ptr, i32, i64, i64, ptr, ...) @H5E_printf_stack(ptr noundef @.str, ptr noundef @__func__.H5FA__hdr_unprotect, i32 noundef 469, i64 noundef %36, i64 noundef %37, ptr noundef @.str.16, i64 noundef %40)
  br label %42

42:                                               ; preds = %35
  br label %43

43:                                               ; preds = %42
  store i8 1, ptr %6, align 1, !tbaa !10
  %44 = load i8, ptr %6, align 1, !tbaa !10, !range !12, !noundef !13
  %45 = trunc i8 %44 to i1
  %46 = zext i1 %45 to i8
  store i8 %46, ptr %6, align 1, !tbaa !10
  br label %47

47:                                               ; preds = %43
  br label %48

48:                                               ; preds = %47
  br label %49

49:                                               ; preds = %48
  store i32 -1, ptr %5, align 4, !tbaa !34
  br label %55

50:                                               ; No predecessors!
  br label %51

51:                                               ; preds = %50
  br label %52

52:                                               ; preds = %51
  br label %53

53:                                               ; preds = %52
  br label %54

54:                                               ; preds = %53, %21
  br label %55

55:                                               ; preds = %54, %49
  br label %56

56:                                               ; preds = %55, %13
  %57 = load i32, ptr %5, align 4, !tbaa !34
  call void @llvm.lifetime.end.p0(i64 1, ptr %6) #5
  call void @llvm.lifetime.end.p0(i64 4, ptr %5) #5
  ret i32 %57
}