; Function Attrs: nounwind uwtable
define range(i32 -1, 1) i32 @H5FA__hdr_unprotect(ptr noundef %0, i32 noundef %1) local_unnamed_addr #0 {
  %3 = load i8, ptr @H5FA_init_g, align 1, !tbaa !3, !range !7, !noundef !8
  %4 = trunc nuw i8 %3 to i1
  %5 = load i8, ptr @H5_libterm_g, align 1, !range !7
  %6 = trunc nuw i8 %5 to i1
  %7 = xor i1 %6, true
  %8 = select i1 %4, i1 true, i1 %7
  br i1 %8, label %9, label %21, !prof !9

9:                                                ; preds = %2
  %10 = getelementptr inbounds nuw i8, ptr %0, i64 328
  %11 = load ptr, ptr %10, align 8, !tbaa !28
  %12 = getelementptr inbounds nuw i8, ptr %0, i64 312
  %13 = load i64, ptr %12, align 8, !tbaa !12
  %14 = tail call i32 @H5AC_unprotect(ptr noundef %11, ptr noundef nonnull @H5AC_FARRAY_HDR, i64 noundef %13, ptr noundef %0, i32 noundef %1) #5
  %15 = icmp slt i32 %14, 0
  br i1 %15, label %16, label %21

16:                                               ; preds = %9
  %17 = load i64, ptr @H5E_FARRAY_g, align 8, !tbaa !10
  %18 = load i64, ptr @H5E_CANTUNPROTECT_g, align 8, !tbaa !10
  %19 = load i64, ptr %12, align 8, !tbaa !12
  %20 = tail call i32 (ptr, ptr, i32, i64, i64, ptr, ...) @H5E_printf_stack(ptr noundef nonnull @.str, ptr noundef nonnull @__func__.H5FA__hdr_unprotect, i32 noundef 469, i64 noundef %17, i64 noundef %18, ptr noundef nonnull @.str.16, i64 noundef %19) #5
  br label %21

21:                                               ; preds = %16, %9, %2
  %.0 = phi i32 [ -1, %16 ], [ 0, %9 ], [ 0, %2 ]
  ret i32 %.0
}